target datalayout = "e-m:e-p270:32:32-p271:32:32-p272:64:64-i64:64-i128:128-f80:128-n8:16:32:64-S128"
target triple = "x86_64-pc-linux-gnu"

%"struct.boost::timer::cpu_times" = type { i64, i64, i64 }
%struct.tms = type { i64, i64, i64, i64 }

@_ZZN12_GLOBAL__N_113get_cpu_timesERN5boost5timer9cpu_timesEE2tf = internal global i64 0, align 8
@_ZGVZN12_GLOBAL__N_113get_cpu_timesERN5boost5timer9cpu_timesEE2tf = internal global i64 0, align 8

; Function Attrs: mustprogress nounwind uwtable
define internal noundef i64 @_ZN12_GLOBAL__N_111tick_factorEv() #2 {
  %1 = alloca i64, align 8
  %2 = alloca i64, align 8
  %3 = alloca i32, align 4
  call void @llvm.lifetime.start.p0(i64 8, ptr %2) #4
  %4 = call i64 @sysconf(i32 noundef 2) #4
  store i64 %4, ptr %2, align 8, !tbaa !26
  %5 = load i64, ptr %2, align 8, !tbaa !26
  %6 = icmp sle i64 %5, 0
  br i1 %6, label %7, label %8

7:                                                ; preds = %0
  store i64 -1, ptr %1, align 8
  store i32 1, ptr %3, align 4
  br label %16

8:                                                ; preds = %0
  %9 = load i64, ptr %2, align 8, !tbaa !26
  %10 = sdiv i64 1000000000, %9
  store i64 %10, ptr %2, align 8, !tbaa !26
  %11 = load i64, ptr %2, align 8, !tbaa !26
  %12 = icmp eq i64 %11, 0
  br i1 %12, label %13, label %14

13:                                               ; preds = %8
  store i64 -1, ptr %2, align 8, !tbaa !26
  br label %14

14:                                               ; preds = %13, %8
  %15 = load i64, ptr %2, align 8, !tbaa !26
  store i64 %15, ptr %1, align 8
  store i32 1, ptr %3, align 4
  br label %16

16:                                               ; preds = %14, %7
  call void @llvm.lifetime.end.p0(i64 8, ptr %2) #4
  %17 = load i64, ptr %1, align 8
  ret i64 %17
}

; Function Attrs: mustprogress uwtable
define internal void @_ZN12_GLOBAL__N_113get_cpu_timesERN5boost5timer9cpu_timesE(ptr noundef nonnull align 8 dereferenceable(24) %0) #3 personality ptr @__gxx_personality_v0 {
  %2 = alloca ptr, align 8
  %3 = alloca ptr, align 8
  %4 = alloca i32, align 4
  %5 = alloca %struct.tms, align 8
  %6 = alloca i64, align 8
  %7 = alloca i32, align 4
  store ptr %0, ptr %2, align 8, !tbaa !3
  %8 = load ptr, ptr %2, align 8, !tbaa !3
  %9 = getelementptr inbounds nuw %"struct.boost::timer::cpu_times", ptr %8, i32 0, i32 0
  store i64 -1, ptr %9, align 8, !tbaa !27
  %10 = load ptr, ptr %2, align 8, !tbaa !3
  %11 = getelementptr inbounds nuw %"struct.boost::timer::cpu_times", ptr %10, i32 0, i32 1
  store i64 -1, ptr %11, align 8, !tbaa !25
  %12 = load ptr, ptr %2, align 8, !tbaa !3
  %13 = getelementptr inbounds nuw %"struct.boost::timer::cpu_times", ptr %12, i32 0, i32 2
  store i64 -1, ptr %13, align 8, !tbaa !23
  %14 = load atomic i8, ptr @_ZGVZN12_GLOBAL__N_113get_cpu_timesERN5boost5timer9cpu_timesEE2tf acquire, align 8
  %15 = icmp eq i8 %14, 0
  br i1 %15, label %16, label %22, !prof !34

16:                                               ; preds = %1
  %17 = call i32 @__cxa_guard_acquire(ptr @_ZGVZN12_GLOBAL__N_113get_cpu_timesERN5boost5timer9cpu_timesEE2tf) #4
  %18 = icmp ne i32 %17, 0
  br i1 %18, label %19, label %22

19:                                               ; preds = %16
  %20 = invoke noundef i64 @_ZN12_GLOBAL__N_111tick_factorEv()
          to label %21 unwind label %26

21:                                               ; preds = %19
  store i64 %20, ptr @_ZZN12_GLOBAL__N_113get_cpu_timesERN5boost5timer9cpu_timesEE2tf, align 8, !tbaa !26
  call void @__cxa_guard_release(ptr @_ZGVZN12_GLOBAL__N_113get_cpu_timesERN5boost5timer9cpu_timesEE2tf) #4
  br label %22

22:                                               ; preds = %21, %16, %1
  %23 = load i64, ptr @_ZZN12_GLOBAL__N_113get_cpu_timesERN5boost5timer9cpu_timesEE2tf, align 8, !tbaa !26
  %24 = icmp eq i64 %23, -1
  br i1 %24, label %25, label %30

25:                                               ; preds = %22
  br label %61

26:                                               ; preds = %19
  %27 = landingpad { ptr, i32 }
          cleanup
  %28 = extractvalue { ptr, i32 } %27, 0
  store ptr %28, ptr %3, align 8
  %29 = extractvalue { ptr, i32 } %27, 1
  store i32 %29, ptr %4, align 4
  call void @__cxa_guard_abort(ptr @_ZGVZN12_GLOBAL__N_113get_cpu_timesERN5boost5timer9cpu_timesEE2tf) #4
  br label %62

30:                                               ; preds = %22
  call void @llvm.lifetime.start.p0(i64 32, ptr %5) #4
  call void @llvm.lifetime.start.p0(i64 8, ptr %6) #4
  %31 = call i64 @times(ptr noundef %5) #4
  store i64 %31, ptr %6, align 8, !tbaa !26
  %32 = load i64, ptr %6, align 8, !tbaa !26
  %33 = icmp eq i64 %32, -1
  br i1 %33, label %34, label %35

34:                                               ; preds = %30
  store i32 1, ptr %7, align 4
  br label %59

35:                                               ; preds = %30
  %36 = load i64, ptr %6, align 8, !tbaa !26
  %37 = load i64, ptr @_ZZN12_GLOBAL__N_113get_cpu_timesERN5boost5timer9cpu_timesEE2tf, align 8, !tbaa !26
  %38 = mul nsw i64 %36, %37
  %39 = load ptr, ptr %2, align 8, !tbaa !3
  %40 = getelementptr inbounds nuw %"struct.boost::timer::cpu_times", ptr %39, i32 0, i32 0
  store i64 %38, ptr %40, align 8, !tbaa !27
  %41 = getelementptr inbounds nuw %struct.tms, ptr %5, i32 0, i32 1
  %42 = load i64, ptr %41, align 8, !tbaa !35
  %43 = getelementptr inbounds nuw %struct.tms, ptr %5, i32 0, i32 3
  %44 = load i64, ptr %43, align 8, !tbaa !37
  %45 = add nsw i64 %42, %44
  %46 = load i64, ptr @_ZZN12_GLOBAL__N_113get_cpu_timesERN5boost5timer9cpu_timesEE2tf, align 8, !tbaa !26
  %47 = mul nsw i64 %45, %46
  %48 = load ptr, ptr %2, align 8, !tbaa !3
  %49 = getelementptr inbounds nuw %"struct.boost::timer::cpu_times", ptr %48, i32 0, i32 2
  store i64 %47, ptr %49, align 8, !tbaa !23
  %50 = getelementptr inbounds nuw %struct.tms, ptr %5, i32 0, i32 0
  %51 = load i64, ptr %50, align 8, !tbaa !38
  %52 = getelementptr inbounds nuw %struct.tms, ptr %5, i32 0, i32 2
  %53 = load i64, ptr %52, align 8, !tbaa !39
  %54 = add nsw i64 %51, %53
  %55 = load i64, ptr @_ZZN12_GLOBAL__N_113get_cpu_timesERN5boost5timer9cpu_timesEE2tf, align 8, !tbaa !26
  %56 = mul nsw i64 %54, %55
  %57 = load ptr, ptr %2, align 8, !tbaa !3
  %58 = getelementptr inbounds nuw %"struct.boost::timer::cpu_times", ptr %57, i32 0, i32 1
  store i64 %56, ptr %58, align 8, !tbaa !25
  store i32 0, ptr %7, align 4
  br label %59

59:                                               ; preds = %35, %34
  call void @llvm.lifetime.end.p0(i64 8, ptr %6) #4
  call void @llvm.lifetime.end.p0(i64 32, ptr %5) #4
  %60 = load i32, ptr %7, align 4
  switch i32 %60, label %67 [
    i32 0, label %61
    i32 1, label %61
  ]

61:                                               ; preds = %25, %59, %59
  ret void

62:                                               ; preds = %26
  %63 = load ptr, ptr %3, align 8
  %64 = load i32, ptr %4, align 4
  %65 = insertvalue { ptr, i32 } poison, ptr %63, 0
  %66 = insertvalue { ptr, i32 } %65, i32 %64, 1
  resume { ptr, i32 } %66

67:                                               ; preds = %59
  unreachable
}