; Function Attrs: mustprogress nounwind uwtable
define internal fastcc void @_ZN12_GLOBAL__N_113get_cpu_timesERN5boost5timer9cpu_timesE(ptr nocapture noundef nonnull writeonly align 8 dereferenceable(24) %0) unnamed_addr #1 personality ptr @__gxx_personality_v0 {
  %2 = alloca %struct.tms, align 8
  %3 = getelementptr inbounds nuw i8, ptr %0, i64 8
  %4 = getelementptr inbounds nuw i8, ptr %0, i64 16
  tail call void @llvm.memset.p0.i64(ptr noundef nonnull align 8 dereferenceable(24) %0, i8 -1, i64 24, i1 false)
  %5 = load atomic i8, ptr @_ZGVZN12_GLOBAL__N_113get_cpu_timesERN5boost5timer9cpu_timesEE2tf acquire, align 8
  %6 = icmp eq i8 %5, 0
  br i1 %6, label %7, label %15, !prof !48

7:                                                ; preds = %1
  %8 = tail call i32 @__cxa_guard_acquire(ptr nonnull @_ZGVZN12_GLOBAL__N_113get_cpu_timesERN5boost5timer9cpu_timesEE2tf) #16
  %.not = icmp eq i32 %8, 0
  br i1 %.not, label %15, label %9

9:                                                ; preds = %7
  %10 = tail call i64 @sysconf(i32 noundef 2) #16
  %11 = icmp slt i64 %10, 1
  br i1 %11, label %_ZN12_GLOBAL__N_111tick_factorEv.exit, label %12

12:                                               ; preds = %9
  %13 = udiv i64 1000000000, %10
  %14 = icmp ugt i64 %10, 1000000000
  %spec.store.select.i = select i1 %14, i64 -1, i64 %13
  br label %_ZN12_GLOBAL__N_111tick_factorEv.exit

_ZN12_GLOBAL__N_111tick_factorEv.exit:            ; preds = %9, %12
  %.0.i = phi i64 [ %spec.store.select.i, %12 ], [ -1, %9 ]
  store i64 %.0.i, ptr @_ZZN12_GLOBAL__N_113get_cpu_timesERN5boost5timer9cpu_timesEE2tf, align 8, !tbaa !49
  tail call void @__cxa_guard_release(ptr nonnull @_ZGVZN12_GLOBAL__N_113get_cpu_timesERN5boost5timer9cpu_timesEE2tf) #16
  br label %15

15:                                               ; preds = %_ZN12_GLOBAL__N_111tick_factorEv.exit, %7, %1
  %16 = load i64, ptr @_ZZN12_GLOBAL__N_113get_cpu_timesERN5boost5timer9cpu_timesEE2tf, align 8, !tbaa !49
  %17 = icmp eq i64 %16, -1
  br i1 %17, label %36, label %18

18:                                               ; preds = %15
  call void @llvm.lifetime.start.p0(i64 32, ptr nonnull %2) #16
  %19 = call i64 @times(ptr noundef nonnull %2) #16
  %20 = icmp eq i64 %19, -1
  br i1 %20, label %35, label %21

21:                                               ; preds = %18
  %22 = load i64, ptr @_ZZN12_GLOBAL__N_113get_cpu_timesERN5boost5timer9cpu_timesEE2tf, align 8, !tbaa !49
  %23 = mul nsw i64 %22, %19
  store i64 %23, ptr %0, align 8, !tbaa !40
  %24 = getelementptr inbounds nuw i8, ptr %2, i64 8
  %25 = load i64, ptr %24, align 8, !tbaa !50
  %26 = getelementptr inbounds nuw i8, ptr %2, i64 24
  %27 = load i64, ptr %26, align 8, !tbaa !52
  %28 = add nsw i64 %27, %25
  %29 = mul nsw i64 %28, %22
  store i64 %29, ptr %4, align 8, !tbaa !37
  %30 = load i64, ptr %2, align 8, !tbaa !53
  %31 = getelementptr inbounds nuw i8, ptr %2, i64 16
  %32 = load i64, ptr %31, align 8, !tbaa !54
  %33 = add nsw i64 %32, %30
  %34 = mul nsw i64 %33, %22
  store i64 %34, ptr %3, align 8, !tbaa !39
  br label %35

35:                                               ; preds = %18, %21
  call void @llvm.lifetime.end.p0(i64 32, ptr nonnull %2) #16
  br label %36

36:                                               ; preds = %15, %35
  ret void
}